; Function Attrs: nounwind uwtable
define internal void @_ctld_free_list_msg(ptr noundef %0) #0 {
  %2 = alloca ptr, align 8
  call void @llvm.lifetime.start.p0(i64 8, ptr nonnull %2) #16
  store ptr %0, ptr %2, align 8
  %.not = icmp eq ptr %0, null
  br i1 %.not, label %7, label %3

3:                                                ; preds = %1
  %4 = load ptr, ptr %0, align 8
  %.not2 = icmp eq ptr %4, null
  br i1 %.not2, label %6, label %5

5:                                                ; preds = %3
  tail call void @free_buf(ptr noundef nonnull %4) #16
  br label %6

6:                                                ; preds = %5, %3
  store ptr null, ptr %0, align 8
  call void @slurm_xfree(ptr noundef nonnull %2) #16
  br label %7

7:                                                ; preds = %6, %1
  call void @llvm.lifetime.end.p0(i64 8, ptr nonnull %2) #16
  ret void
}